target datalayout = "e-m:e-p270:32:32-p271:32:32-p272:64:64-i64:64-i128:128-f80:128-n8:16:32:64-S128"
target triple = "x86_64-pc-linux-gnu"

%struct.AVCodecContext = type { ptr, i32, i32, ptr, i32, i32, ptr, ptr, ptr, i64, i32, i32, ptr, i32, %struct.AVRational, %struct.AVRational, %struct.AVRational, i32, i32, i32, i32, i32, %struct.AVRational, i32, i32, i32, i32, i32, i32, i32, i32, i32, i32, i32, ptr, ptr, i32, float, float, float, float, float, float, float, float, float, i32, i32, i32, i32, i32, i32, i32, i32, i32, i32, i32, i32, ptr, ptr, ptr, i32, i32, i32, i32, i32, i32, i32, i32, i32, i32, %struct.AVChannelLayout, i32, i32, i32, i32, i32, i32, i32, i32, ptr, i32, i32, i32, float, float, i32, i32, i32, i32, i32, ptr, i64, i64, float, float, i32, i32, ptr, ptr, i32, i32, i32, i32, i32, ptr, ptr, ptr, ptr, i32, i32, [8 x i64], i32, i32, i32, i32, i32, i32, i32, ptr, ptr, i32, i32, i32, i32, i32, i32, i32, i32, i32, i32, ptr, ptr, i32, i32, ptr, ptr, ptr, ptr, i32, i32, i64, i32, i32, i64, ptr, i64, ptr, i32, ptr, i32 }
%struct.AVRational = type { i32, i32 }
%struct.AVChannelLayout = type { i32, i32, %union.anon, ptr }
%union.anon = type { i64 }
%struct.AACDecContext = type { ptr, ptr, %struct.AACDecDSP, %struct.AACDecProc, ptr, i32, %struct.DynamicRangeControl, [4 x [64 x ptr]], [4 x [64 x ptr]], i32, i32, [8 x i8], %union.anon.0, %union.anon.1, ptr, ptr, ptr, ptr, ptr, ptr, ptr, ptr, ptr, ptr, ptr, ptr, ptr, ptr, ptr, ptr, ptr, ptr, %union.anon.2, i32, [64 x ptr], i32, i32, i32, [2 x %struct.OutputConfiguration], i32, i32, i32, i32, i32, i32, [8 x i8] }
%struct.AACDecDSP = type { ptr, ptr, ptr, ptr, ptr, ptr, ptr, ptr, ptr, ptr, ptr, ptr, ptr, ptr, ptr }
%struct.AACDecProc = type { ptr, ptr, ptr, ptr, ptr, ptr }
%struct.DynamicRangeControl = type { i32, [17 x i32], [17 x i32], [64 x i32], i32, i32, [17 x i32], i32 }
%union.anon.0 = type { [1024 x i32] }
%union.anon.1 = type { [128 x i32] }
%union.anon.2 = type { ptr }
%struct.OutputConfiguration = type { %struct.MPEG4AudioConfig, [256 x [3 x i8]], i32, %struct.AVChannelLayout, i32, %struct.AACUSACConfig }
%struct.MPEG4AudioConfig = type { i32, i32, i32, i32, i32, i32, i32, i32, i32, i32, i32, i32 }
%struct.AACUSACConfig = type { i8, i16, i16, [64 x %struct.AACUsacElemConfig], i32, %struct.anon.6 }
%struct.AACUsacElemConfig = type { i32, i8, i8, %struct.anon, %struct.anon.4, %struct.anon.5 }
%struct.anon = type { i32, i8, %struct.anon.3 }
%struct.anon.3 = type { i8, i8, i8, i8, i8, i8, i8, i8 }
%struct.anon.4 = type { i8, i8, i8, i8, i8, i8, i8, i8, i8 }
%struct.anon.5 = type { i32, i8, i32, i32, ptr }
%struct.anon.6 = type { i8, i8, [64 x %struct.AACUSACLoudnessInfo], i8, i8, [64 x %struct.AACUSACLoudnessInfo] }
%struct.AACUSACLoudnessInfo = type <{ i16, %struct.anon.7, %struct.anon.8, i8, [16 x %struct.anon.9], i8 }>
%struct.anon.7 = type { i16 }
%struct.anon.8 = type { i32 }
%struct.anon.9 = type { i8, i8, i8 }

@ff_aac_decode_init_fixed.init_fixed_once = internal global i32 0, align 4

; Function Attrs: cold nounwind optsize uwtable
define internal void @aac_proc_init_fixed(ptr noundef %0) #0 {
  %2 = alloca ptr, align 8
  store ptr %0, ptr %2, align 8, !tbaa !58
  %3 = load ptr, ptr %2, align 8, !tbaa !58
  %4 = getelementptr inbounds nuw %struct.AACDecProc, ptr %3, i32 0, i32 0
  store ptr @decode_spectrum_and_dequant_fixed, ptr %4, align 8, !tbaa !60
  %5 = load ptr, ptr %2, align 8, !tbaa !58
  %6 = getelementptr inbounds nuw %struct.AACDecProc, ptr %5, i32 0, i32 1
  store ptr @decode_cce_fixed, ptr %6, align 8, !tbaa !61
  %7 = load ptr, ptr %2, align 8, !tbaa !58
  %8 = getelementptr inbounds nuw %struct.AACDecProc, ptr %7, i32 0, i32 2
  store ptr @ff_aac_sbr_ctx_alloc_init_fixed, ptr %8, align 8, !tbaa !62
  %9 = load ptr, ptr %2, align 8, !tbaa !58
  %10 = getelementptr inbounds nuw %struct.AACDecProc, ptr %9, i32 0, i32 3
  store ptr @ff_aac_sbr_decode_extension_fixed, ptr %10, align 8, !tbaa !63
  %11 = load ptr, ptr %2, align 8, !tbaa !58
  %12 = getelementptr inbounds nuw %struct.AACDecProc, ptr %11, i32 0, i32 4
  store ptr @ff_aac_sbr_apply_fixed, ptr %12, align 8, !tbaa !64
  %13 = load ptr, ptr %2, align 8, !tbaa !58
  %14 = getelementptr inbounds nuw %struct.AACDecProc, ptr %13, i32 0, i32 5
  store ptr @ff_aac_sbr_ctx_close_fixed, ptr %14, align 8, !tbaa !65
  ret void
}

; Function Attrs: cold nounwind optsize uwtable
define internal void @aac_dsp_init_fixed(ptr noundef %0) #0 {
  %2 = alloca ptr, align 8
  store ptr %0, ptr %2, align 8, !tbaa !41
  %3 = load ptr, ptr %2, align 8, !tbaa !41
  %4 = getelementptr inbounds nuw %struct.AACDecDSP, ptr %3, i32 0, i32 0
  store ptr @dequant_scalefactors_fixed, ptr %4, align 8, !tbaa !43
  %5 = load ptr, ptr %2, align 8, !tbaa !41
  %6 = getelementptr inbounds nuw %struct.AACDecDSP, ptr %5, i32 0, i32 1
  store ptr @apply_mid_side_stereo_fixed, ptr %6, align 8, !tbaa !44
  %7 = load ptr, ptr %2, align 8, !tbaa !41
  %8 = getelementptr inbounds nuw %struct.AACDecDSP, ptr %7, i32 0, i32 2
  store ptr @apply_intensity_stereo_fixed, ptr %8, align 8, !tbaa !45
  %9 = load ptr, ptr %2, align 8, !tbaa !41
  %10 = getelementptr inbounds nuw %struct.AACDecDSP, ptr %9, i32 0, i32 3
  store ptr @apply_tns_fixed, ptr %10, align 8, !tbaa !46
  %11 = load ptr, ptr %2, align 8, !tbaa !41
  %12 = getelementptr inbounds nuw %struct.AACDecDSP, ptr %11, i32 0, i32 4
  store ptr @apply_ltp_fixed, ptr %12, align 8, !tbaa !47
  %13 = load ptr, ptr %2, align 8, !tbaa !41
  %14 = getelementptr inbounds nuw %struct.AACDecDSP, ptr %13, i32 0, i32 5
  store ptr @update_ltp_fixed, ptr %14, align 8, !tbaa !48
  %15 = load ptr, ptr %2, align 8, !tbaa !41
  %16 = getelementptr inbounds nuw %struct.AACDecDSP, ptr %15, i32 0, i32 6
  store ptr @apply_prediction_fixed, ptr %16, align 8, !tbaa !49
  %17 = load ptr, ptr %2, align 8, !tbaa !41
  %18 = getelementptr inbounds nuw %struct.AACDecDSP, ptr %17, i32 0, i32 9
  store ptr @imdct_and_windowing_fixed, ptr %18, align 8, !tbaa !50
  %19 = load ptr, ptr %2, align 8, !tbaa !41
  %20 = getelementptr inbounds nuw %struct.AACDecDSP, ptr %19, i32 0, i32 10
  store ptr @imdct_and_windowing_768_fixed, ptr %20, align 8, !tbaa !51
  %21 = load ptr, ptr %2, align 8, !tbaa !41
  %22 = getelementptr inbounds nuw %struct.AACDecDSP, ptr %21, i32 0, i32 11
  store ptr @imdct_and_windowing_960_fixed, ptr %22, align 8, !tbaa !52
  %23 = load ptr, ptr %2, align 8, !tbaa !41
  %24 = getelementptr inbounds nuw %struct.AACDecDSP, ptr %23, i32 0, i32 12
  store ptr @imdct_and_windowing_ld_fixed, ptr %24, align 8, !tbaa !53
  %25 = load ptr, ptr %2, align 8, !tbaa !41
  %26 = getelementptr inbounds nuw %struct.AACDecDSP, ptr %25, i32 0, i32 13
  store ptr @imdct_and_windowing_eld_fixed, ptr %26, align 8, !tbaa !54
  %27 = load ptr, ptr %2, align 8, !tbaa !41
  %28 = getelementptr inbounds nuw %struct.AACDecDSP, ptr %27, i32 0, i32 7
  store ptr @apply_dependent_coupling_fixed, ptr %28, align 8, !tbaa !55
  %29 = load ptr, ptr %2, align 8, !tbaa !41
  %30 = getelementptr inbounds nuw %struct.AACDecDSP, ptr %29, i32 0, i32 8
  store ptr @apply_independent_coupling_fixed, ptr %30, align 8, !tbaa !56
  %31 = load ptr, ptr %2, align 8, !tbaa !41
  %32 = getelementptr inbounds nuw %struct.AACDecDSP, ptr %31, i32 0, i32 14
  store ptr @clip_output_fixed, ptr %32, align 8, !tbaa !57
  ret void
}

; Function Attrs: cold nounwind optsize uwtable
define i32 @ff_aac_decode_init_fixed(ptr noundef %0) #0 {
  %2 = alloca i32, align 4
  %3 = alloca ptr, align 8
  %4 = alloca ptr, align 8
  %5 = alloca i32, align 4
  store ptr %0, ptr %3, align 8, !tbaa !4
  call void @llvm.lifetime.start.p0(i64 8, ptr %4) #13
  %6 = load ptr, ptr %3, align 8, !tbaa !4
  %7 = getelementptr inbounds nuw %struct.AVCodecContext, ptr %6, i32 0, i32 6
  %8 = load ptr, ptr %7, align 8, !tbaa !9
  store ptr %8, ptr %4, align 8, !tbaa !29
  %9 = load ptr, ptr %4, align 8, !tbaa !29
  %10 = getelementptr inbounds nuw %struct.AACDecContext, ptr %9, i32 0, i32 44
  store i32 1, ptr %10, align 4, !tbaa !31
  %11 = load ptr, ptr %3, align 8, !tbaa !4
  %12 = getelementptr inbounds nuw %struct.AVCodecContext, ptr %11, i32 0, i32 70
  store i32 7, ptr %12, align 4, !tbaa !38
  %13 = load ptr, ptr %4, align 8, !tbaa !29
  %14 = getelementptr inbounds nuw %struct.AACDecContext, ptr %13, i32 0, i32 2
  call void @aac_dsp_init_fixed(ptr noundef %14) #14
  %15 = load ptr, ptr %4, align 8, !tbaa !29
  %16 = getelementptr inbounds nuw %struct.AACDecContext, ptr %15, i32 0, i32 3
  call void @aac_proc_init_fixed(ptr noundef %16) #14
  %17 = load ptr, ptr %3, align 8, !tbaa !4
  %18 = getelementptr inbounds nuw %struct.AVCodecContext, ptr %17, i32 0, i32 10
  %19 = load i32, ptr %18, align 8, !tbaa !39
  %20 = and i32 %19, 8388608
  %21 = call ptr @avpriv_alloc_fixed_dsp(i32 noundef %20)
  %22 = load ptr, ptr %4, align 8, !tbaa !29
  %23 = getelementptr inbounds nuw %struct.AACDecContext, ptr %22, i32 0, i32 32
  store ptr %21, ptr %23, align 16, !tbaa !40
  %24 = load ptr, ptr %4, align 8, !tbaa !29
  %25 = getelementptr inbounds nuw %struct.AACDecContext, ptr %24, i32 0, i32 32
  %26 = load ptr, ptr %25, align 16, !tbaa !40
  %27 = icmp ne ptr %26, null
  br i1 %27, label %29, label %28

28:                                               ; preds = %1
  store i32 -12, ptr %2, align 4
  store i32 1, ptr %5, align 4
  br label %33

29:                                               ; preds = %1
  %30 = call i32 @pthread_once(ptr noundef @ff_aac_decode_init_fixed.init_fixed_once, ptr noundef @init_tables_fixed_fn)
  %31 = load ptr, ptr %3, align 8, !tbaa !4
  %32 = call i32 @ff_aac_decode_init(ptr noundef %31)
  store i32 %32, ptr %2, align 4
  store i32 1, ptr %5, align 4
  br label %33

33:                                               ; preds = %29, %28
  call void @llvm.lifetime.end.p0(i64 8, ptr %4) #13
  %34 = load i32, ptr %2, align 4
  ret i32 %34
}